target datalayout = "e-m:e-p270:32:32-p271:32:32-p272:64:64-i64:64-i128:128-f80:128-n8:16:32:64-S128"
target triple = "x86_64-pc-linux-gnu"

%struct.KDF_SSKDF = type { ptr, ptr, %struct.PROV_DIGEST, ptr, i64, ptr, i64, ptr, i64, i64, i32 }
%struct.PROV_DIGEST = type { ptr, ptr, ptr }

@.str = private unnamed_addr constant [50 x i8] c"../openssl/providers/implementations/kdfs/sskdf.c\00", align 1

; Function Attrs: nounwind uwtable
define internal void @sskdf_reset(ptr noundef %0) #0 {
  %2 = alloca ptr, align 8
  %3 = alloca ptr, align 8
  %4 = alloca ptr, align 8
  store ptr %0, ptr %2, align 8, !tbaa !3
  call void @llvm.lifetime.start.p0(i64 8, ptr %3) #6
  %5 = load ptr, ptr %2, align 8, !tbaa !3
  store ptr %5, ptr %3, align 8, !tbaa !3
  call void @llvm.lifetime.start.p0(i64 8, ptr %4) #6
  %6 = load ptr, ptr %3, align 8, !tbaa !3
  %7 = getelementptr inbounds nuw %struct.KDF_SSKDF, ptr %6, i32 0, i32 0
  %8 = load ptr, ptr %7, align 8, !tbaa !7
  store ptr %8, ptr %4, align 8, !tbaa !3
  %9 = load ptr, ptr %3, align 8, !tbaa !3
  %10 = getelementptr inbounds nuw %struct.KDF_SSKDF, ptr %9, i32 0, i32 1
  %11 = load ptr, ptr %10, align 8, !tbaa !16
  call void @EVP_MAC_CTX_free(ptr noundef %11)
  %12 = load ptr, ptr %3, align 8, !tbaa !3
  %13 = getelementptr inbounds nuw %struct.KDF_SSKDF, ptr %12, i32 0, i32 2
  call void @ossl_prov_digest_reset(ptr noundef %13)
  %14 = load ptr, ptr %3, align 8, !tbaa !3
  %15 = getelementptr inbounds nuw %struct.KDF_SSKDF, ptr %14, i32 0, i32 3
  %16 = load ptr, ptr %15, align 8, !tbaa !21
  %17 = load ptr, ptr %3, align 8, !tbaa !3
  %18 = getelementptr inbounds nuw %struct.KDF_SSKDF, ptr %17, i32 0, i32 4
  %19 = load i64, ptr %18, align 8, !tbaa !22
  call void @CRYPTO_clear_free(ptr noundef %16, i64 noundef %19, ptr noundef @.str, i32 noundef 330)
  %20 = load ptr, ptr %3, align 8, !tbaa !3
  %21 = getelementptr inbounds nuw %struct.KDF_SSKDF, ptr %20, i32 0, i32 5
  %22 = load ptr, ptr %21, align 8, !tbaa !17
  %23 = load ptr, ptr %3, align 8, !tbaa !3
  %24 = getelementptr inbounds nuw %struct.KDF_SSKDF, ptr %23, i32 0, i32 6
  %25 = load i64, ptr %24, align 8, !tbaa !18
  call void @CRYPTO_clear_free(ptr noundef %22, i64 noundef %25, ptr noundef @.str, i32 noundef 331)
  %26 = load ptr, ptr %3, align 8, !tbaa !3
  %27 = getelementptr inbounds nuw %struct.KDF_SSKDF, ptr %26, i32 0, i32 7
  %28 = load ptr, ptr %27, align 8, !tbaa !19
  %29 = load ptr, ptr %3, align 8, !tbaa !3
  %30 = getelementptr inbounds nuw %struct.KDF_SSKDF, ptr %29, i32 0, i32 8
  %31 = load i64, ptr %30, align 8, !tbaa !20
  call void @CRYPTO_clear_free(ptr noundef %28, i64 noundef %31, ptr noundef @.str, i32 noundef 332)
  %32 = load ptr, ptr %3, align 8, !tbaa !3
  call void @llvm.memset.p0.i64(ptr align 8 %32, i8 0, i64 104, i1 false)
  %33 = load ptr, ptr %4, align 8, !tbaa !3
  %34 = load ptr, ptr %3, align 8, !tbaa !3
  %35 = getelementptr inbounds nuw %struct.KDF_SSKDF, ptr %34, i32 0, i32 0
  store ptr %33, ptr %35, align 8, !tbaa !7
  call void @llvm.lifetime.end.p0(i64 8, ptr %4) #6
  call void @llvm.lifetime.end.p0(i64 8, ptr %3) #6
  ret void
}

; Function Attrs: nounwind uwtable
define internal void @sskdf_free(ptr noundef %0) #0 {
  %2 = alloca ptr, align 8
  %3 = alloca ptr, align 8
  store ptr %0, ptr %2, align 8, !tbaa !3
  call void @llvm.lifetime.start.p0(i64 8, ptr %3) #6
  %4 = load ptr, ptr %2, align 8, !tbaa !3
  store ptr %4, ptr %3, align 8, !tbaa !3
  %5 = load ptr, ptr %3, align 8, !tbaa !3
  %6 = icmp ne ptr %5, null
  br i1 %6, label %7, label %10

7:                                                ; preds = %1
  %8 = load ptr, ptr %3, align 8, !tbaa !3
  call void @sskdf_reset(ptr noundef %8)
  %9 = load ptr, ptr %3, align 8, !tbaa !3
  call void @CRYPTO_free(ptr noundef %9, ptr noundef @.str, i32 noundef 343)
  br label %10

10:                                               ; preds = %7, %1
  call void @llvm.lifetime.end.p0(i64 8, ptr %3) #6
  ret void
}

; Function Attrs: nounwind uwtable
define internal ptr @sskdf_new(ptr noundef %0) #0 {
  %2 = alloca ptr, align 8
  %3 = alloca ptr, align 8
  %4 = alloca ptr, align 8
  %5 = alloca i32, align 4
  store ptr %0, ptr %3, align 8, !tbaa !3
  call void @llvm.lifetime.start.p0(i64 8, ptr %4) #6
  %6 = call i32 @ossl_prov_is_running()
  %7 = icmp ne i32 %6, 0
  br i1 %7, label %9, label %8

8:                                                ; preds = %1
  store ptr null, ptr %2, align 8
  store i32 1, ptr %5, align 4
  br label %18

9:                                                ; preds = %1
  %10 = call noalias ptr @CRYPTO_zalloc(i64 noundef 104, ptr noundef @.str, i32 noundef 316)
  store ptr %10, ptr %4, align 8, !tbaa !3
  %11 = icmp ne ptr %10, null
  br i1 %11, label %12, label %16

12:                                               ; preds = %9
  %13 = load ptr, ptr %3, align 8, !tbaa !3
  %14 = load ptr, ptr %4, align 8, !tbaa !3
  %15 = getelementptr inbounds nuw %struct.KDF_SSKDF, ptr %14, i32 0, i32 0
  store ptr %13, ptr %15, align 8, !tbaa !7
  br label %16

16:                                               ; preds = %12, %9
  %17 = load ptr, ptr %4, align 8, !tbaa !3
  store ptr %17, ptr %2, align 8
  store i32 1, ptr %5, align 4
  br label %18

18:                                               ; preds = %16, %8
  call void @llvm.lifetime.end.p0(i64 8, ptr %4) #6
  %19 = load ptr, ptr %2, align 8
  ret ptr %19
}

; Function Attrs: nounwind uwtable
define internal ptr @sskdf_dup(ptr noundef %0) #0 {
  %2 = alloca ptr, align 8
  %3 = alloca ptr, align 8
  %4 = alloca ptr, align 8
  %5 = alloca ptr, align 8
  %6 = alloca i32, align 4
  store ptr %0, ptr %3, align 8, !tbaa !3
  call void @llvm.lifetime.start.p0(i64 8, ptr %4) #6
  %7 = load ptr, ptr %3, align 8, !tbaa !3
  store ptr %7, ptr %4, align 8, !tbaa !3
  call void @llvm.lifetime.start.p0(i64 8, ptr %5) #6
  %8 = load ptr, ptr %4, align 8, !tbaa !3
  %9 = getelementptr inbounds nuw %struct.KDF_SSKDF, ptr %8, i32 0, i32 0
  %10 = load ptr, ptr %9, align 8, !tbaa !7
  %11 = call ptr @sskdf_new(ptr noundef %10)
  store ptr %11, ptr %5, align 8, !tbaa !3
  %12 = load ptr, ptr %5, align 8, !tbaa !3
  %13 = icmp ne ptr %12, null
  br i1 %13, label %14, label %90

14:                                               ; preds = %1
  %15 = load ptr, ptr %4, align 8, !tbaa !3
  %16 = getelementptr inbounds nuw %struct.KDF_SSKDF, ptr %15, i32 0, i32 1
  %17 = load ptr, ptr %16, align 8, !tbaa !16
  %18 = icmp ne ptr %17, null
  br i1 %18, label %19, label %32

19:                                               ; preds = %14
  %20 = load ptr, ptr %4, align 8, !tbaa !3
  %21 = getelementptr inbounds nuw %struct.KDF_SSKDF, ptr %20, i32 0, i32 1
  %22 = load ptr, ptr %21, align 8, !tbaa !16
  %23 = call ptr @EVP_MAC_CTX_dup(ptr noundef %22)
  %24 = load ptr, ptr %5, align 8, !tbaa !3
  %25 = getelementptr inbounds nuw %struct.KDF_SSKDF, ptr %24, i32 0, i32 1
  store ptr %23, ptr %25, align 8, !tbaa !16
  %26 = load ptr, ptr %5, align 8, !tbaa !3
  %27 = getelementptr inbounds nuw %struct.KDF_SSKDF, ptr %26, i32 0, i32 1
  %28 = load ptr, ptr %27, align 8, !tbaa !16
  %29 = icmp eq ptr %28, null
  br i1 %29, label %30, label %31

30:                                               ; preds = %19
  br label %92

31:                                               ; preds = %19
  br label %32

32:                                               ; preds = %31, %14
  %33 = load ptr, ptr %4, align 8, !tbaa !3
  %34 = getelementptr inbounds nuw %struct.KDF_SSKDF, ptr %33, i32 0, i32 5
  %35 = load ptr, ptr %34, align 8, !tbaa !17
  %36 = load ptr, ptr %4, align 8, !tbaa !3
  %37 = getelementptr inbounds nuw %struct.KDF_SSKDF, ptr %36, i32 0, i32 6
  %38 = load i64, ptr %37, align 8, !tbaa !18
  %39 = load ptr, ptr %5, align 8, !tbaa !3
  %40 = getelementptr inbounds nuw %struct.KDF_SSKDF, ptr %39, i32 0, i32 5
  %41 = load ptr, ptr %5, align 8, !tbaa !3
  %42 = getelementptr inbounds nuw %struct.KDF_SSKDF, ptr %41, i32 0, i32 6
  %43 = call i32 @ossl_prov_memdup(ptr noundef %35, i64 noundef %38, ptr noundef %40, ptr noundef %42)
  %44 = icmp ne i32 %43, 0
  br i1 %44, label %45, label %78

45:                                               ; preds = %32
  %46 = load ptr, ptr %4, align 8, !tbaa !3
  %47 = getelementptr inbounds nuw %struct.KDF_SSKDF, ptr %46, i32 0, i32 7
  %48 = load ptr, ptr %47, align 8, !tbaa !19
  %49 = load ptr, ptr %4, align 8, !tbaa !3
  %50 = getelementptr inbounds nuw %struct.KDF_SSKDF, ptr %49, i32 0, i32 8
  %51 = load i64, ptr %50, align 8, !tbaa !20
  %52 = load ptr, ptr %5, align 8, !tbaa !3
  %53 = getelementptr inbounds nuw %struct.KDF_SSKDF, ptr %52, i32 0, i32 7
  %54 = load ptr, ptr %5, align 8, !tbaa !3
  %55 = getelementptr inbounds nuw %struct.KDF_SSKDF, ptr %54, i32 0, i32 8
  %56 = call i32 @ossl_prov_memdup(ptr noundef %48, i64 noundef %51, ptr noundef %53, ptr noundef %55)
  %57 = icmp ne i32 %56, 0
  br i1 %57, label %58, label %78

58:                                               ; preds = %45
  %59 = load ptr, ptr %4, align 8, !tbaa !3
  %60 = getelementptr inbounds nuw %struct.KDF_SSKDF, ptr %59, i32 0, i32 3
  %61 = load ptr, ptr %60, align 8, !tbaa !21
  %62 = load ptr, ptr %4, align 8, !tbaa !3
  %63 = getelementptr inbounds nuw %struct.KDF_SSKDF, ptr %62, i32 0, i32 4
  %64 = load i64, ptr %63, align 8, !tbaa !22
  %65 = load ptr, ptr %5, align 8, !tbaa !3
  %66 = getelementptr inbounds nuw %struct.KDF_SSKDF, ptr %65, i32 0, i32 3
  %67 = load ptr, ptr %5, align 8, !tbaa !3
  %68 = getelementptr inbounds nuw %struct.KDF_SSKDF, ptr %67, i32 0, i32 4
  %69 = call i32 @ossl_prov_memdup(ptr noundef %61, i64 noundef %64, ptr noundef %66, ptr noundef %68)
  %70 = icmp ne i32 %69, 0
  br i1 %70, label %71, label %78

71:                                               ; preds = %58
  %72 = load ptr, ptr %5, align 8, !tbaa !3
  %73 = getelementptr inbounds nuw %struct.KDF_SSKDF, ptr %72, i32 0, i32 2
  %74 = load ptr, ptr %4, align 8, !tbaa !3
  %75 = getelementptr inbounds nuw %struct.KDF_SSKDF, ptr %74, i32 0, i32 2
  %76 = call i32 @ossl_prov_digest_copy(ptr noundef %73, ptr noundef %75)
  %77 = icmp ne i32 %76, 0
  br i1 %77, label %79, label %78

78:                                               ; preds = %71, %58, %45, %32
  br label %92

79:                                               ; preds = %71
  %80 = load ptr, ptr %4, align 8, !tbaa !3
  %81 = getelementptr inbounds nuw %struct.KDF_SSKDF, ptr %80, i32 0, i32 9
  %82 = load i64, ptr %81, align 8, !tbaa !23
  %83 = load ptr, ptr %5, align 8, !tbaa !3
  %84 = getelementptr inbounds nuw %struct.KDF_SSKDF, ptr %83, i32 0, i32 9
  store i64 %82, ptr %84, align 8, !tbaa !23
  %85 = load ptr, ptr %4, align 8, !tbaa !3
  %86 = getelementptr inbounds nuw %struct.KDF_SSKDF, ptr %85, i32 0, i32 10
  %87 = load i32, ptr %86, align 8, !tbaa !24
  %88 = load ptr, ptr %5, align 8, !tbaa !3
  %89 = getelementptr inbounds nuw %struct.KDF_SSKDF, ptr %88, i32 0, i32 10
  store i32 %87, ptr %89, align 8, !tbaa !24
  br label %90

90:                                               ; preds = %79, %1
  %91 = load ptr, ptr %5, align 8, !tbaa !3
  store ptr %91, ptr %2, align 8
  store i32 1, ptr %6, align 4
  br label %94

92:                                               ; preds = %78, %30
  %93 = load ptr, ptr %5, align 8, !tbaa !3
  call void @sskdf_free(ptr noundef %93)
  store ptr null, ptr %2, align 8
  store i32 1, ptr %6, align 4
  br label %94

94:                                               ; preds = %92, %90
  call void @llvm.lifetime.end.p0(i64 8, ptr %5) #6
  call void @llvm.lifetime.end.p0(i64 8, ptr %4) #6
  %95 = load ptr, ptr %2, align 8
  ret ptr %95
}