; Function Attrs: nounwind uwtable
define internal ptr @sskdf_dup(ptr noundef %0) #0 {
  %2 = load ptr, ptr %0, align 8, !tbaa !3
  %3 = tail call i32 @ossl_prov_is_running() #7
  %.not.i = icmp eq i32 %3, 0
  br i1 %.not.i, label %sskdf_new.exit.thread, label %4

4:                                                ; preds = %1
  %5 = tail call noalias ptr @CRYPTO_zalloc(i64 noundef 104, ptr noundef nonnull @.str, i32 noundef 316) #7
  %.not5.i = icmp eq ptr %5, null
  br i1 %.not5.i, label %sskdf_new.exit.thread, label %6

6:                                                ; preds = %4
  store ptr %2, ptr %5, align 8, !tbaa !3
  %7 = getelementptr inbounds nuw i8, ptr %0, i64 8
  %8 = load ptr, ptr %7, align 8, !tbaa !15
  %.not30 = icmp eq ptr %8, null
  br i1 %.not30, label %13, label %9

9:                                                ; preds = %6
  %10 = tail call ptr @EVP_MAC_CTX_dup(ptr noundef nonnull %8) #7
  %11 = getelementptr inbounds nuw i8, ptr %5, i64 8
  store ptr %10, ptr %11, align 8, !tbaa !15
  %12 = icmp eq ptr %10, null
  br i1 %12, label %sskdf_free.exit, label %13

13:                                               ; preds = %9, %6
  %14 = getelementptr inbounds nuw i8, ptr %0, i64 56
  %15 = load ptr, ptr %14, align 8, !tbaa !16
  %16 = getelementptr inbounds nuw i8, ptr %0, i64 64
  %17 = load i64, ptr %16, align 8, !tbaa !17
  %18 = getelementptr inbounds nuw i8, ptr %5, i64 56
  %19 = getelementptr inbounds nuw i8, ptr %5, i64 64
  %20 = tail call i32 @ossl_prov_memdup(ptr noundef %15, i64 noundef %17, ptr noundef nonnull %18, ptr noundef nonnull %19) #7
  %.not31 = icmp eq i32 %20, 0
  br i1 %.not31, label %sskdf_free.exit, label %21

21:                                               ; preds = %13
  %22 = getelementptr inbounds nuw i8, ptr %0, i64 72
  %23 = load ptr, ptr %22, align 8, !tbaa !18
  %24 = getelementptr inbounds nuw i8, ptr %0, i64 80
  %25 = load i64, ptr %24, align 8, !tbaa !19
  %26 = getelementptr inbounds nuw i8, ptr %5, i64 72
  %27 = getelementptr inbounds nuw i8, ptr %5, i64 80
  %28 = tail call i32 @ossl_prov_memdup(ptr noundef %23, i64 noundef %25, ptr noundef nonnull %26, ptr noundef nonnull %27) #7
  %.not32 = icmp eq i32 %28, 0
  br i1 %.not32, label %sskdf_free.exit, label %29

29:                                               ; preds = %21
  %30 = getelementptr inbounds nuw i8, ptr %0, i64 40
  %31 = load ptr, ptr %30, align 8, !tbaa !20
  %32 = getelementptr inbounds nuw i8, ptr %0, i64 48
  %33 = load i64, ptr %32, align 8, !tbaa !21
  %34 = getelementptr inbounds nuw i8, ptr %5, i64 40
  %35 = getelementptr inbounds nuw i8, ptr %5, i64 48
  %36 = tail call i32 @ossl_prov_memdup(ptr noundef %31, i64 noundef %33, ptr noundef nonnull %34, ptr noundef nonnull %35) #7
  %.not33 = icmp eq i32 %36, 0
  br i1 %.not33, label %sskdf_free.exit, label %37

37:                                               ; preds = %29
  %38 = getelementptr inbounds nuw i8, ptr %5, i64 16
  %39 = getelementptr inbounds nuw i8, ptr %0, i64 16
  %40 = tail call i32 @ossl_prov_digest_copy(ptr noundef nonnull %38, ptr noundef nonnull %39) #7
  %.not34 = icmp eq i32 %40, 0
  br i1 %.not34, label %sskdf_free.exit, label %41

41:                                               ; preds = %37
  %42 = getelementptr inbounds nuw i8, ptr %0, i64 88
  %43 = load i64, ptr %42, align 8, !tbaa !22
  %44 = getelementptr inbounds nuw i8, ptr %5, i64 88
  store i64 %43, ptr %44, align 8, !tbaa !22
  %45 = getelementptr inbounds nuw i8, ptr %0, i64 96
  %46 = load i32, ptr %45, align 8, !tbaa !23
  %47 = getelementptr inbounds nuw i8, ptr %5, i64 96
  store i32 %46, ptr %47, align 8, !tbaa !23
  br label %sskdf_new.exit.thread

sskdf_free.exit:                                  ; preds = %13, %21, %29, %37, %9
  %48 = load ptr, ptr %5, align 8, !tbaa !3
  %49 = getelementptr inbounds nuw i8, ptr %5, i64 8
  %50 = load ptr, ptr %49, align 8, !tbaa !15
  tail call void @EVP_MAC_CTX_free(ptr noundef %50) #7
  %51 = getelementptr inbounds nuw i8, ptr %5, i64 16
  tail call void @ossl_prov_digest_reset(ptr noundef nonnull %51) #7
  %52 = getelementptr inbounds nuw i8, ptr %5, i64 40
  %53 = load ptr, ptr %52, align 8, !tbaa !20
  %54 = getelementptr inbounds nuw i8, ptr %5, i64 48
  %55 = load i64, ptr %54, align 8, !tbaa !21
  tail call void @CRYPTO_clear_free(ptr noundef %53, i64 noundef %55, ptr noundef nonnull @.str, i32 noundef 330) #7
  %56 = getelementptr inbounds nuw i8, ptr %5, i64 56
  %57 = load ptr, ptr %56, align 8, !tbaa !16
  %58 = getelementptr inbounds nuw i8, ptr %5, i64 64
  %59 = load i64, ptr %58, align 8, !tbaa !17
  tail call void @CRYPTO_clear_free(ptr noundef %57, i64 noundef %59, ptr noundef nonnull @.str, i32 noundef 331) #7
  %60 = getelementptr inbounds nuw i8, ptr %5, i64 72
  %61 = load ptr, ptr %60, align 8, !tbaa !18
  %62 = getelementptr inbounds nuw i8, ptr %5, i64 80
  %63 = load i64, ptr %62, align 8, !tbaa !19
  tail call void @CRYPTO_clear_free(ptr noundef %61, i64 noundef %63, ptr noundef nonnull @.str, i32 noundef 332) #7
  tail call void @llvm.memset.p0.i64(ptr noundef nonnull align 8 dereferenceable(104) %49, i8 0, i64 96, i1 false)
  store ptr %48, ptr %5, align 8, !tbaa !3
  tail call void @CRYPTO_free(ptr noundef nonnull %5, ptr noundef nonnull @.str, i32 noundef 343) #7
  br label %sskdf_new.exit.thread

sskdf_new.exit.thread:                            ; preds = %4, %1, %41, %sskdf_free.exit
  %.0 = phi ptr [ null, %sskdf_free.exit ], [ %5, %41 ], [ null, %1 ], [ null, %4 ]
  ret ptr %.0
}